#include <math.h>
#include <stdio.h>
#include <stdlib.h>
#include <string.h>

void main()
{
int t,sum[26],i,min,j,b,c;
char a[100001];

scanf("%d",&t);
while(t>0){
scanf("%s",a);

for(j=0;j<26;j++)
sum[j]=0;
for(j=0;j<strlen(a);j++)
sum[a[j]-'a']++;
min=0;
for(j=0;j<strlen(a)+1;j++)
{if(sum[a[j]-'a']==1)
{printf("%c\n",a[j]);
break;}
if(j==strlen(a)) printf("no\n");}
t--;}

}