; ModuleID = '37/1118.c'
source_filename = "37/1118.c"
target datalayout = "e-m:e-p270:32:32-p271:32:32-p272:64:64-i64:64-f80:128-n8:16:32:64-S128"
target triple = "x86_64-pc-linux-gnu"

@.str = private unnamed_addr constant [3 x i8] c"%d\00", align 1
@.str.1 = private unnamed_addr constant [3 x i8] c"%s\00", align 1
@.str.2 = private unnamed_addr constant [4 x i8] c"%c\0A\00", align 1
@.str.3 = private unnamed_addr constant [4 x i8] c"no\0A\00", align 1

; Function Attrs: noinline nounwind uwtable
define dso_local void @main() #0 {
  %1 = alloca i32, align 4
  %2 = alloca [26 x i32], align 16
  %3 = alloca i32, align 4
  %4 = alloca i32, align 4
  %5 = alloca i32, align 4
  %6 = alloca i32, align 4
  %7 = alloca i32, align 4
  %8 = alloca [100001 x i8], align 16
  %9 = call i32 (i8*, ...) @__isoc99_scanf(i8* getelementptr inbounds ([3 x i8], [3 x i8]* @.str, i64 0, i64 0), i32* %1)
  br label %10

10:                                               ; preds = %85, %0
  %11 = load i32, i32* %1, align 4
  %12 = icmp sgt i32 %11, 0
  br i1 %12, label %13, label %88

13:                                               ; preds = %10
  %14 = getelementptr inbounds [100001 x i8], [100001 x i8]* %8, i64 0, i64 0
  %15 = call i32 (i8*, ...) @__isoc99_scanf(i8* getelementptr inbounds ([3 x i8], [3 x i8]* @.str.1, i64 0, i64 0), i8* %14)
  store i32 0, i32* %5, align 4
  br label %16

16:                                               ; preds = %23, %13
  %17 = load i32, i32* %5, align 4
  %18 = icmp slt i32 %17, 26
  br i1 %18, label %19, label %26

19:                                               ; preds = %16
  %20 = load i32, i32* %5, align 4
  %21 = sext i32 %20 to i64
  %22 = getelementptr inbounds [26 x i32], [26 x i32]* %2, i64 0, i64 %21
  store i32 0, i32* %22, align 4
  br label %23

23:                                               ; preds = %19
  %24 = load i32, i32* %5, align 4
  %25 = add nsw i32 %24, 1
  store i32 %25, i32* %5, align 4
  br label %16

26:                                               ; preds = %16
  store i32 0, i32* %5, align 4
  br label %27

27:                                               ; preds = %44, %26
  %28 = load i32, i32* %5, align 4
  %29 = sext i32 %28 to i64
  %30 = getelementptr inbounds [100001 x i8], [100001 x i8]* %8, i64 0, i64 0
  %31 = call i64 @strlen(i8* %30) #3
  %32 = icmp ult i64 %29, %31
  br i1 %32, label %33, label %47

33:                                               ; preds = %27
  %34 = load i32, i32* %5, align 4
  %35 = sext i32 %34 to i64
  %36 = getelementptr inbounds [100001 x i8], [100001 x i8]* %8, i64 0, i64 %35
  %37 = load i8, i8* %36, align 1
  %38 = sext i8 %37 to i32
  %39 = sub nsw i32 %38, 97
  %40 = sext i32 %39 to i64
  %41 = getelementptr inbounds [26 x i32], [26 x i32]* %2, i64 0, i64 %40
  %42 = load i32, i32* %41, align 4
  %43 = add nsw i32 %42, 1
  store i32 %43, i32* %41, align 4
  br label %44

44:                                               ; preds = %33
  %45 = load i32, i32* %5, align 4
  %46 = add nsw i32 %45, 1
  store i32 %46, i32* %5, align 4
  br label %27

47:                                               ; preds = %27
  store i32 0, i32* %4, align 4
  store i32 0, i32* %5, align 4
  br label %48

48:                                               ; preds = %82, %47
  %49 = load i32, i32* %5, align 4
  %50 = sext i32 %49 to i64
  %51 = getelementptr inbounds [100001 x i8], [100001 x i8]* %8, i64 0, i64 0
  %52 = call i64 @strlen(i8* %51) #3
  %53 = add i64 %52, 1
  %54 = icmp ult i64 %50, %53
  br i1 %54, label %55, label %85

55:                                               ; preds = %48
  %56 = load i32, i32* %5, align 4
  %57 = sext i32 %56 to i64
  %58 = getelementptr inbounds [100001 x i8], [100001 x i8]* %8, i64 0, i64 %57
  %59 = load i8, i8* %58, align 1
  %60 = sext i8 %59 to i32
  %61 = sub nsw i32 %60, 97
  %62 = sext i32 %61 to i64
  %63 = getelementptr inbounds [26 x i32], [26 x i32]* %2, i64 0, i64 %62
  %64 = load i32, i32* %63, align 4
  %65 = icmp eq i32 %64, 1
  br i1 %65, label %66, label %73

66:                                               ; preds = %55
  %67 = load i32, i32* %5, align 4
  %68 = sext i32 %67 to i64
  %69 = getelementptr inbounds [100001 x i8], [100001 x i8]* %8, i64 0, i64 %68
  %70 = load i8, i8* %69, align 1
  %71 = sext i8 %70 to i32
  %72 = call i32 (i8*, ...) @printf(i8* getelementptr inbounds ([4 x i8], [4 x i8]* @.str.2, i64 0, i64 0), i32 %71)
  br label %85

73:                                               ; preds = %55
  %74 = load i32, i32* %5, align 4
  %75 = sext i32 %74 to i64
  %76 = getelementptr inbounds [100001 x i8], [100001 x i8]* %8, i64 0, i64 0
  %77 = call i64 @strlen(i8* %76) #3
  %78 = icmp eq i64 %75, %77
  br i1 %78, label %79, label %81

79:                                               ; preds = %73
  %80 = call i32 (i8*, ...) @printf(i8* getelementptr inbounds ([4 x i8], [4 x i8]* @.str.3, i64 0, i64 0))
  br label %81

81:                                               ; preds = %79, %73
  br label %82

82:                                               ; preds = %81
  %83 = load i32, i32* %5, align 4
  %84 = add nsw i32 %83, 1
  store i32 %84, i32* %5, align 4
  br label %48

85:                                               ; preds = %66, %48
  %86 = load i32, i32* %1, align 4
  %87 = add nsw i32 %86, -1
  store i32 %87, i32* %1, align 4
  br label %10

88:                                               ; preds = %10
  ret void
}

declare dso_local i32 @__isoc99_scanf(i8*, ...) #1

; Function Attrs: nounwind readonly
declare dso_local i64 @strlen(i8*) #2

declare dso_local i32 @printf(i8*, ...) #1


!llvm.module.flags = !{!0}
!llvm.ident = !{!1}

!0 = !{i32 1, !"wchar_size", i32 4}
!1 = !{!"clang version 10.0.0-4ubuntu1 "}
